(lp0
Vcontent
p1
aVprice
p2
aVdog
p3
aVbed
p4
aVbath
p5
aVfeet
p6
aVlong
p7
aVlat
p8
aVgetphotos
p9
aVcat
p10
aVhasmap
p11
aVlaundry_laundry in bldg
p12
aVlaundry_laundry on site
p13
aVlaundry_no laundry on site
p14
aVlaundry_w/d hookups
p15
aVlaundry_w/d in unit
p16
aVparking_attached garage
p17
aVparking_carport
p18
aVparking_detached garage
p19
aVparking_no parking
p20
aVparking_off-street parking
p21
aVparking_street parking
p22
aVparking_valet parking
p23
aVsmoking_no smoking
p24
aVwheelchair_wheelchair accessible
p25
aVhousingtype_apartment
p26
aVhousingtype_condo
p27
aVhousingtype_cottage/cabin
p28
aVhousingtype_duplex
p29
aVhousingtype_flat
p30
aVhousingtype_house
p31
aVhousingtype_in-law
p32
aVhousingtype_land
p33
aVhousingtype_loft
p34
aVhousingtype_manufactured
p35
aVhousingtype_townhouse
p36
aS'neighborhood_0'
p37
aS'neighborhood_1'
p38
aS'neighborhood_2'
p39
aS'neighborhood_3'
p40
aS'neighborhood_4'
p41
aS'neighborhood_5'
p42
aS'neighborhood_6'
p43
aS'neighborhood_7'
p44
aS'neighborhood_8'
p45
aS'neighborhood_9'
p46
aS'neighborhood_10'
p47
aS'neighborhood_11'
p48
aS'neighborhood_12'
p49
aS'neighborhood_13'
p50
aS'neighborhood_14'
p51
aS'neighborhood_15'
p52
aS'neighborhood_16'
p53
aS'neighborhood_17'
p54
aS'neighborhood_18'
p55
aS'neighborhood_19'
p56
aS'neighborhood_20'
p57
aS'neighborhood_21'
p58
aS'neighborhood_22'
p59
aS'neighborhood_23'
p60
aS'neighborhood_24'
p61
aS'neighborhood_25'
p62
aS'neighborhood_26'
p63
aS'neighborhood_27'
p64
aS'neighborhood_28'
p65
aS'neighborhood_29'
p66
aS'neighborhood_30'
p67
aS'neighborhood_31'
p68
aS'neighborhood_32'
p69
aS'neighborhood_33'
p70
aS'neighborhood_34'
p71
aS'neighborhood_35'
p72
aS'neighborhood_36'
p73
aS'neighborhood_37'
p74
aS'neighborhood_38'
p75
aS'neighborhood_39'
p76
a.