(lp0
(lp1
F45.52025165330364
aF-122.69291670230142
aI0
aa(lp2
F45.51826583404255
aF-122.45812230851064
aI1
aa(lp3
F45.51344294459834
aF-122.58083224930748
aI2
aa(lp4
F45.51236507004556
aF-122.63846603872437
aI3
aa(lp5
F45.578067931993814
aF-122.68635113446678
aI4
aa(lp6
F45.52410921969697
aF-122.76868293939394
aI5
aa(lp7
F45.51656045941124
aF-122.40842154504907
aI6
aa(lp8
F45.467520219512195
aF-122.71552602113822
aI7
aa(lp9
F45.45808255514706
aF-122.64569804411765
aI8
aa(lp10
F45.472491011351906
aF-122.56593730237358
aI9
aa(lp11
F45.49819281097561
aF-122.50099855284553
aI10
aa(lp12
F45.494495958895705
aF-122.67352666257669
aI11
aa(lp13
F45.528602815037594
aF-122.65842693007518
aI12
aa(lp14
F45.5518958
aF-122.53367640606061
aI13
aa(lp15
F45.58711001914894
aF-122.74329630212766
aI14
aa(lp16
F45.55193777211155
aF-122.67138029482072
aI15
aa(lp17
F45.5394035
aF-123.126516
aI16
aa(lp18
F45.544174400966185
aF-122.60394489613526
aI17
aa(lp19
F45.48768552544379
aF-122.63592975857988
aI18
aa(lp20
F45.56268565595463
aF-122.64437267485822
aI19
aa(lp21
F45.532360096638655
aF-122.69974337237394
aI20
aa(lp22
F45.512446910158545
aF-122.68280540634176
aI21
aa(lp23
F45.54527786290323
aF-122.8324012983871
aI22
aa(lp24
F45.474910145833334
aF-122.80256277083333
aI23
aa(lp25
F45.5337802616408
aF-122.49977380044346
aI24
aa(lp26
F45.53169712347826
aF-122.44451391130436
aI25
aa(lp27
F45.53332054086538
aF-122.56031285576923
aI26
aa(lp28
F45.484650358974356
aF-122.40973176353276
aI27
aa(lp29
F45.51793181074481
aF-122.60778205982906
aI28
aa(lp30
F45.49900523771791
aF-122.69072989381934
aI29
aa(lp31
F45.529192274623036
aF-122.68503010009624
aI30
aa(lp32
F45.43603080978261
aF-122.72310597826086
aI31
aa(lp33
F45.53286023589744
aF-122.63832367399267
aI32
aa(lp34
F45.499603446028516
aF-122.56845869857435
aI33
aa(lp35
F45.48235719433198
aF-122.60273378947369
aI34
aa(lp36
F45.52964811111111
aF-122.95869544444444
aI35
aa(lp37
F45.470370875420876
aF-122.68325122895622
aI36
aa(lp38
F45.49996902791878
aF-122.45477518908629
aI37
aa(lp39
F45.59531425405405
aF-122.66042758378379
aI38
aa(lp40
F45.50115018918919
aF-122.5300866081081
aI39
aa.